; Function Attrs: mustprogress nofree norecurse nosync nounwind willreturn memory(write, argmem: readwrite, inaccessiblemem: none) uwtable
define dso_local void @LLVMSetArgOperand(ptr noundef %0, i32 noundef %1, ptr noundef %2) local_unnamed_addr #19 {
  %4 = getelementptr inbounds nuw i8, ptr %0, i64 4
  %5 = load i32, ptr %4, align 4
  %6 = and i32 %5, 134217727
  %7 = zext nneg i32 %6 to i64
  %8 = sub nsw i64 0, %7
  %9 = getelementptr inbounds %"class.llvm::Use", ptr %0, i64 %8
  %10 = zext i32 %1 to i64
  %11 = getelementptr inbounds nuw %"class.llvm::Use", ptr %9, i64 %10
  %12 = load ptr, ptr %11, align 8
  %.not.i.i.i.i = icmp eq ptr %12, null
  br i1 %.not.i.i.i.i, label %_ZN4llvm3Use14removeFromListEv.exit.i.i.i.i, label %13

13:                                               ; preds = %3
  %14 = getelementptr inbounds nuw i8, ptr %11, i64 8
  %15 = load ptr, ptr %14, align 8
  %16 = getelementptr inbounds nuw i8, ptr %11, i64 16
  %17 = load ptr, ptr %16, align 8
  store ptr %15, ptr %17, align 8
  %.not.i.i.i.i.i = icmp eq ptr %15, null
  br i1 %.not.i.i.i.i.i, label %_ZN4llvm3Use14removeFromListEv.exit.i.i.i.i, label %18

18:                                               ; preds = %13
  %19 = load ptr, ptr %16, align 8
  %20 = getelementptr inbounds nuw i8, ptr %15, i64 16
  store ptr %19, ptr %20, align 8
  br label %_ZN4llvm3Use14removeFromListEv.exit.i.i.i.i

_ZN4llvm3Use14removeFromListEv.exit.i.i.i.i:      ; preds = %18, %13, %3
  store ptr %2, ptr %11, align 8
  %.not4.i.i.i.i = icmp eq ptr %2, null
  br i1 %.not4.i.i.i.i, label %_ZN4llvm14FuncletPadInst13setArgOperandEjPNS_5ValueE.exit, label %21

21:                                               ; preds = %_ZN4llvm3Use14removeFromListEv.exit.i.i.i.i
  %22 = getelementptr inbounds nuw i8, ptr %2, i64 16
  %23 = load ptr, ptr %22, align 8
  %24 = getelementptr inbounds nuw i8, ptr %11, i64 8
  store ptr %23, ptr %24, align 8
  %.not.i.i.i.i.i.i = icmp eq ptr %23, null
  br i1 %.not.i.i.i.i.i.i, label %_ZN4llvm5Value6addUseERNS_3UseE.exit.i.i.i.i, label %25

25:                                               ; preds = %21
  %26 = getelementptr inbounds nuw i8, ptr %23, i64 16
  store ptr %24, ptr %26, align 8
  br label %_ZN4llvm5Value6addUseERNS_3UseE.exit.i.i.i.i

_ZN4llvm5Value6addUseERNS_3UseE.exit.i.i.i.i:     ; preds = %25, %21
  %27 = getelementptr inbounds nuw i8, ptr %11, i64 16
  store ptr %22, ptr %27, align 8
  store ptr %11, ptr %22, align 8
  br label %_ZN4llvm14FuncletPadInst13setArgOperandEjPNS_5ValueE.exit

_ZN4llvm14FuncletPadInst13setArgOperandEjPNS_5ValueE.exit: ; preds = %_ZN4llvm3Use14removeFromListEv.exit.i.i.i.i, %_ZN4llvm5Value6addUseERNS_3UseE.exit.i.i.i.i
  ret void
}